target datalayout = "e-m:e-p270:32:32-p271:32:32-p272:64:64-i64:64-i128:128-f80:128-n8:16:32:64-S128"
target triple = "x86_64-pc-linux-gnu"

%struct.drwav_fmt = type { i16, i16, i32, i32, i16, i16, i16, i16, i32, [16 x i8] }
%struct.drwav_allocation_callbacks = type { ptr, ptr, ptr, ptr }
%struct.drwav = type { ptr, ptr, ptr, ptr, %struct.drwav_allocation_callbacks, i32, %struct.drwav_fmt, i32, i16, i16, i16, i64, i64, i64, i64, i64, i64, i32, ptr, i32, %struct.drwav__memory_stream, %struct.drwav__memory_stream_write, %struct.anon.57, %struct.anon.58, %struct.anon.59 }
%struct.drwav__memory_stream = type { ptr, i64, i64 }
%struct.drwav__memory_stream_write = type { ptr, ptr, i64, i64, i64 }
%struct.anon.57 = type { i32, [2 x i16], [2 x i32], [4 x i32], i32, [2 x [2 x i32]] }
%struct.anon.58 = type { i32, [2 x i32], [2 x i32], [16 x i32], i32 }
%struct.anon.59 = type { i8, i8 }

; Function Attrs: nounwind uwtable
define internal void @drwav_copy_allocation_callbacks_or_defaults(ptr dead_on_unwind noalias writable sret(%struct.drwav_allocation_callbacks) align 8 %0, ptr noundef %1) #0 {
  %3 = alloca ptr, align 8
  store ptr %1, ptr %3, align 8
  %4 = load ptr, ptr %3, align 8
  %5 = icmp ne ptr %4, null
  br i1 %5, label %6, label %8

6:                                                ; preds = %2
  %7 = load ptr, ptr %3, align 8
  call void @llvm.memcpy.p0.p0.i64(ptr align 8 %0, ptr align 8 %7, i64 32, i1 false)
  br label %13

8:                                                ; preds = %2
  %9 = getelementptr inbounds nuw %struct.drwav_allocation_callbacks, ptr %0, i32 0, i32 0
  store ptr null, ptr %9, align 8
  %10 = getelementptr inbounds nuw %struct.drwav_allocation_callbacks, ptr %0, i32 0, i32 1
  store ptr @drwav__malloc_default, ptr %10, align 8
  %11 = getelementptr inbounds nuw %struct.drwav_allocation_callbacks, ptr %0, i32 0, i32 2
  store ptr @drwav__realloc_default, ptr %11, align 8
  %12 = getelementptr inbounds nuw %struct.drwav_allocation_callbacks, ptr %0, i32 0, i32 3
  store ptr @drwav__free_default, ptr %12, align 8
  br label %13

13:                                               ; preds = %8, %6
  ret void
}

; Function Attrs: nounwind uwtable
define internal i32 @drwav_preinit(ptr noundef %0, ptr noundef %1, ptr noundef %2, ptr noundef %3, ptr noundef %4) #0 {
  %6 = alloca i32, align 4
  %7 = alloca ptr, align 8
  %8 = alloca ptr, align 8
  %9 = alloca ptr, align 8
  %10 = alloca ptr, align 8
  %11 = alloca ptr, align 8
  %12 = alloca %struct.drwav_allocation_callbacks, align 8
  store ptr %0, ptr %7, align 8
  store ptr %1, ptr %8, align 8
  store ptr %2, ptr %9, align 8
  store ptr %3, ptr %10, align 8
  store ptr %4, ptr %11, align 8
  %13 = load ptr, ptr %7, align 8
  %14 = icmp eq ptr %13, null
  br i1 %14, label %21, label %15

15:                                               ; preds = %5
  %16 = load ptr, ptr %8, align 8
  %17 = icmp eq ptr %16, null
  br i1 %17, label %21, label %18

18:                                               ; preds = %15
  %19 = load ptr, ptr %9, align 8
  %20 = icmp eq ptr %19, null
  br i1 %20, label %21, label %22

21:                                               ; preds = %18, %15, %5
  store i32 0, ptr %6, align 4
  br label %55

22:                                               ; preds = %18
  %23 = load ptr, ptr %7, align 8
  call void @llvm.memset.p0.i64(ptr align 8 %23, i8 0, i64 400, i1 false)
  %24 = load ptr, ptr %8, align 8
  %25 = load ptr, ptr %7, align 8
  %26 = getelementptr inbounds nuw %struct.drwav, ptr %25, i32 0, i32 0
  store ptr %24, ptr %26, align 8
  %27 = load ptr, ptr %9, align 8
  %28 = load ptr, ptr %7, align 8
  %29 = getelementptr inbounds nuw %struct.drwav, ptr %28, i32 0, i32 2
  store ptr %27, ptr %29, align 8
  %30 = load ptr, ptr %10, align 8
  %31 = load ptr, ptr %7, align 8
  %32 = getelementptr inbounds nuw %struct.drwav, ptr %31, i32 0, i32 3
  store ptr %30, ptr %32, align 8
  %33 = load ptr, ptr %7, align 8
  %34 = getelementptr inbounds nuw %struct.drwav, ptr %33, i32 0, i32 4
  call void @llvm.lifetime.start.p0(i64 32, ptr %12) #21
  %35 = load ptr, ptr %11, align 8
  call void @drwav_copy_allocation_callbacks_or_defaults(ptr dead_on_unwind writable sret(%struct.drwav_allocation_callbacks) align 8 %12, ptr noundef %35)
  call void @llvm.memcpy.p0.p0.i64(ptr align 8 %34, ptr align 8 %12, i64 32, i1 false)
  call void @llvm.lifetime.end.p0(i64 32, ptr %12) #21
  %36 = load ptr, ptr %7, align 8
  %37 = getelementptr inbounds nuw %struct.drwav, ptr %36, i32 0, i32 4
  %38 = getelementptr inbounds nuw %struct.drwav_allocation_callbacks, ptr %37, i32 0, i32 3
  %39 = load ptr, ptr %38, align 8
  %40 = icmp eq ptr %39, null
  br i1 %40, label %53, label %41

41:                                               ; preds = %22
  %42 = load ptr, ptr %7, align 8
  %43 = getelementptr inbounds nuw %struct.drwav, ptr %42, i32 0, i32 4
  %44 = getelementptr inbounds nuw %struct.drwav_allocation_callbacks, ptr %43, i32 0, i32 1
  %45 = load ptr, ptr %44, align 8
  %46 = icmp eq ptr %45, null
  br i1 %46, label %47, label %54

47:                                               ; preds = %41
  %48 = load ptr, ptr %7, align 8
  %49 = getelementptr inbounds nuw %struct.drwav, ptr %48, i32 0, i32 4
  %50 = getelementptr inbounds nuw %struct.drwav_allocation_callbacks, ptr %49, i32 0, i32 2
  %51 = load ptr, ptr %50, align 8
  %52 = icmp eq ptr %51, null
  br i1 %52, label %53, label %54

53:                                               ; preds = %47, %22
  store i32 0, ptr %6, align 4
  br label %55

54:                                               ; preds = %47, %41
  store i32 1, ptr %6, align 4
  br label %55

55:                                               ; preds = %54, %53, %21
  %56 = load i32, ptr %6, align 4
  ret i32 %56
}

; Function Attrs: nounwind uwtable
define hidden i32 @drwav_init_ex(ptr noundef %0, ptr noundef %1, ptr noundef %2, ptr noundef %3, ptr noundef %4, ptr noundef %5, i32 noundef %6, ptr noundef %7) #0 {
  %9 = alloca i32, align 4
  %10 = alloca ptr, align 8
  %11 = alloca ptr, align 8
  %12 = alloca ptr, align 8
  %13 = alloca ptr, align 8
  %14 = alloca ptr, align 8
  %15 = alloca ptr, align 8
  %16 = alloca i32, align 4
  %17 = alloca ptr, align 8
  store ptr %0, ptr %10, align 8
  store ptr %1, ptr %11, align 8
  store ptr %2, ptr %12, align 8
  store ptr %3, ptr %13, align 8
  store ptr %4, ptr %14, align 8
  store ptr %5, ptr %15, align 8
  store i32 %6, ptr %16, align 4
  store ptr %7, ptr %17, align 8
  %18 = load ptr, ptr %10, align 8
  %19 = load ptr, ptr %11, align 8
  %20 = load ptr, ptr %12, align 8
  %21 = load ptr, ptr %14, align 8
  %22 = load ptr, ptr %17, align 8
  %23 = call i32 @drwav_preinit(ptr noundef %18, ptr noundef %19, ptr noundef %20, ptr noundef %21, ptr noundef %22)
  %24 = icmp ne i32 %23, 0
  br i1 %24, label %26, label %25

25:                                               ; preds = %8
  store i32 0, ptr %9, align 4
  br label %32

26:                                               ; preds = %8
  %27 = load ptr, ptr %10, align 8
  %28 = load ptr, ptr %13, align 8
  %29 = load ptr, ptr %15, align 8
  %30 = load i32, ptr %16, align 4
  %31 = call i32 @drwav_init__internal(ptr noundef %27, ptr noundef %28, ptr noundef %29, i32 noundef %30)
  store i32 %31, ptr %9, align 4
  br label %32

32:                                               ; preds = %26, %25
  %33 = load i32, ptr %9, align 4
  ret i32 %33
}

; Function Attrs: nounwind uwtable
define hidden i32 @drwav_init(ptr noundef %0, ptr noundef %1, ptr noundef %2, ptr noundef %3, ptr noundef %4) #0 {
  %6 = alloca ptr, align 8
  %7 = alloca ptr, align 8
  %8 = alloca ptr, align 8
  %9 = alloca ptr, align 8
  %10 = alloca ptr, align 8
  store ptr %0, ptr %6, align 8
  store ptr %1, ptr %7, align 8
  store ptr %2, ptr %8, align 8
  store ptr %3, ptr %9, align 8
  store ptr %4, ptr %10, align 8
  %11 = load ptr, ptr %6, align 8
  %12 = load ptr, ptr %7, align 8
  %13 = load ptr, ptr %8, align 8
  %14 = load ptr, ptr %9, align 8
  %15 = load ptr, ptr %10, align 8
  %16 = call i32 @drwav_init_ex(ptr noundef %11, ptr noundef %12, ptr noundef %13, ptr noundef null, ptr noundef %14, ptr noundef null, i32 noundef 0, ptr noundef %15)
  ret i32 %16
}

; Function Attrs: nounwind uwtable
define hidden ptr @drwav_open_and_read_pcm_frames_s16(ptr noundef %0, ptr noundef %1, ptr noundef %2, ptr noundef %3, ptr noundef %4, ptr noundef %5, ptr noundef %6) #0 {
  %8 = alloca ptr, align 8
  %9 = alloca ptr, align 8
  %10 = alloca ptr, align 8
  %11 = alloca ptr, align 8
  %12 = alloca ptr, align 8
  %13 = alloca ptr, align 8
  %14 = alloca ptr, align 8
  %15 = alloca ptr, align 8
  %16 = alloca %struct.drwav, align 8
  %17 = alloca i32, align 4
  store ptr %0, ptr %9, align 8
  store ptr %1, ptr %10, align 8
  store ptr %2, ptr %11, align 8
  store ptr %3, ptr %12, align 8
  store ptr %4, ptr %13, align 8
  store ptr %5, ptr %14, align 8
  store ptr %6, ptr %15, align 8
  call void @llvm.lifetime.start.p0(i64 400, ptr %16) #21
  %18 = load ptr, ptr %12, align 8
  %19 = icmp ne ptr %18, null
  br i1 %19, label %20, label %22

20:                                               ; preds = %7
  %21 = load ptr, ptr %12, align 8
  store i32 0, ptr %21, align 4
  br label %22

22:                                               ; preds = %20, %7
  %23 = load ptr, ptr %13, align 8
  %24 = icmp ne ptr %23, null
  br i1 %24, label %25, label %27

25:                                               ; preds = %22
  %26 = load ptr, ptr %13, align 8
  store i32 0, ptr %26, align 4
  br label %27

27:                                               ; preds = %25, %22
  %28 = load ptr, ptr %14, align 8
  %29 = icmp ne ptr %28, null
  br i1 %29, label %30, label %32

30:                                               ; preds = %27
  %31 = load ptr, ptr %14, align 8
  store i64 0, ptr %31, align 8
  br label %32

32:                                               ; preds = %30, %27
  %33 = load ptr, ptr %9, align 8
  %34 = load ptr, ptr %10, align 8
  %35 = load ptr, ptr %11, align 8
  %36 = load ptr, ptr %15, align 8
  %37 = call i32 @drwav_init(ptr noundef %16, ptr noundef %33, ptr noundef %34, ptr noundef %35, ptr noundef %36)
  %38 = icmp ne i32 %37, 0
  br i1 %38, label %40, label %39

39:                                               ; preds = %32
  store ptr null, ptr %8, align 8
  store i32 1, ptr %17, align 4
  br label %45

40:                                               ; preds = %32
  %41 = load ptr, ptr %12, align 8
  %42 = load ptr, ptr %13, align 8
  %43 = load ptr, ptr %14, align 8
  %44 = call ptr @drwav__read_pcm_frames_and_close_s16(ptr noundef %16, ptr noundef %41, ptr noundef %42, ptr noundef %43)
  store ptr %44, ptr %8, align 8
  store i32 1, ptr %17, align 4
  br label %45

45:                                               ; preds = %40, %39
  call void @llvm.lifetime.end.p0(i64 400, ptr %16) #21
  %46 = load ptr, ptr %8, align 8
  ret ptr %46
}