; Function Attrs: nounwind uwtable
define hidden ptr @drwav_open_and_read_pcm_frames_s16(ptr noundef %0, ptr noundef %1, ptr noundef %2, ptr noundef captures(address_is_null) %3, ptr noundef captures(address_is_null) %4, ptr noundef captures(address_is_null) %5, ptr noundef readonly captures(address_is_null) %6) local_unnamed_addr #7 {
  %8 = alloca %struct.drwav, align 8
  call void @llvm.lifetime.start.p0(i64 400, ptr nonnull %8) #72
  %.not = icmp eq ptr %3, null
  br i1 %.not, label %10, label %9

9:                                                ; preds = %7
  store i32 0, ptr %3, align 4
  br label %10

10:                                               ; preds = %9, %7
  %.not17 = icmp eq ptr %4, null
  br i1 %.not17, label %12, label %11

11:                                               ; preds = %10
  store i32 0, ptr %4, align 4
  br label %12

12:                                               ; preds = %11, %10
  %.not18 = icmp eq ptr %5, null
  br i1 %.not18, label %14, label %13

13:                                               ; preds = %12
  store i64 0, ptr %5, align 8
  br label %14

14:                                               ; preds = %13, %12
  %15 = icmp eq ptr %0, null
  %16 = icmp eq ptr %1, null
  %or.cond3.i.i.i = or i1 %15, %16
  br i1 %or.cond3.i.i.i, label %drwav_init.exit.thread, label %17

17:                                               ; preds = %14
  %18 = getelementptr inbounds nuw i8, ptr %8, i64 8
  call void @llvm.memset.p0.i64(ptr noundef nonnull align 8 dereferenceable(400) %18, i8 0, i64 392, i1 false)
  store ptr %0, ptr %8, align 8
  %19 = getelementptr inbounds nuw i8, ptr %8, i64 16
  store ptr %1, ptr %19, align 8
  %20 = getelementptr inbounds nuw i8, ptr %8, i64 24
  store ptr %2, ptr %20, align 8
  %.not.i.i.i.i = icmp eq ptr %6, null
  br i1 %.not.i.i.i.i, label %.thread.i.i.i, label %drwav_copy_allocation_callbacks_or_defaults.exit.i.i.i

.thread.i.i.i:                                    ; preds = %17
  %.sroa.5.0..sroa_idx30.i.i.i = getelementptr inbounds nuw i8, ptr %8, i64 40
  store ptr @drwav__malloc_default, ptr %.sroa.5.0..sroa_idx30.i.i.i, align 8
  %.sroa.6.0..sroa_idx31.i.i.i = getelementptr inbounds nuw i8, ptr %8, i64 48
  store ptr @drwav__realloc_default, ptr %.sroa.6.0..sroa_idx31.i.i.i, align 8
  %.sroa.7.0..sroa_idx32.i.i.i = getelementptr inbounds nuw i8, ptr %8, i64 56
  store ptr @drwav__free_default, ptr %.sroa.7.0..sroa_idx32.i.i.i, align 8
  br label %drwav_init.exit

drwav_copy_allocation_callbacks_or_defaults.exit.i.i.i: ; preds = %17
  %21 = getelementptr inbounds nuw i8, ptr %8, i64 32
  %.sroa.0.0.copyload21.i.i.i = load ptr, ptr %6, align 8
  %.sroa.5.0..sroa_idx22.i.i.i = getelementptr inbounds nuw i8, ptr %6, i64 8
  %.sroa.5.0.copyload23.i.i.i = load ptr, ptr %.sroa.5.0..sroa_idx22.i.i.i, align 8
  %.sroa.6.0..sroa_idx24.i.i.i = getelementptr inbounds nuw i8, ptr %6, i64 16
  %.sroa.6.0.copyload25.i.i.i = load ptr, ptr %.sroa.6.0..sroa_idx24.i.i.i, align 8
  %.sroa.7.0..sroa_idx26.i.i.i = getelementptr inbounds nuw i8, ptr %6, i64 24
  %.sroa.7.0.copyload27.i.i.i = load ptr, ptr %.sroa.7.0..sroa_idx26.i.i.i, align 8
  store ptr %.sroa.0.0.copyload21.i.i.i, ptr %21, align 8
  %.sroa.5.0..sroa_idx.i.i.i = getelementptr inbounds nuw i8, ptr %8, i64 40
  store ptr %.sroa.5.0.copyload23.i.i.i, ptr %.sroa.5.0..sroa_idx.i.i.i, align 8
  %.sroa.6.0..sroa_idx.i.i.i = getelementptr inbounds nuw i8, ptr %8, i64 48
  store ptr %.sroa.6.0.copyload25.i.i.i, ptr %.sroa.6.0..sroa_idx.i.i.i, align 8
  %.sroa.7.0..sroa_idx.i.i.i = getelementptr inbounds nuw i8, ptr %8, i64 56
  store ptr %.sroa.7.0.copyload27.i.i.i, ptr %.sroa.7.0..sroa_idx.i.i.i, align 8
  %22 = icmp eq ptr %.sroa.7.0.copyload27.i.i.i, null
  br i1 %22, label %drwav_init.exit.thread, label %23

23:                                               ; preds = %drwav_copy_allocation_callbacks_or_defaults.exit.i.i.i
  %24 = icmp eq ptr %.sroa.5.0.copyload23.i.i.i, null
  %25 = icmp eq ptr %.sroa.6.0.copyload25.i.i.i, null
  %or.cond33.i.i.i = select i1 %24, i1 %25, i1 false
  br i1 %or.cond33.i.i.i, label %drwav_init.exit.thread, label %drwav_init.exit

drwav_init.exit:                                  ; preds = %.thread.i.i.i, %23
  %26 = call fastcc i32 @drwav_init__internal(ptr noundef nonnull %8, ptr noundef null, ptr noundef null, i32 noundef 0)
  %.not19 = icmp eq i32 %26, 0
  br i1 %.not19, label %drwav_init.exit.thread, label %27

27:                                               ; preds = %drwav_init.exit
  %28 = call fastcc ptr @drwav__read_pcm_frames_and_close_s16(ptr noundef %8, ptr noundef %3, ptr noundef %4, ptr noundef %5)
  br label %drwav_init.exit.thread

drwav_init.exit.thread:                           ; preds = %23, %drwav_copy_allocation_callbacks_or_defaults.exit.i.i.i, %14, %drwav_init.exit, %27
  %.0 = phi ptr [ %28, %27 ], [ null, %drwav_init.exit ], [ null, %14 ], [ null, %drwav_copy_allocation_callbacks_or_defaults.exit.i.i.i ], [ null, %23 ]
  call void @llvm.lifetime.end.p0(i64 400, ptr nonnull %8) #72
  ret ptr %.0
}